; Function Attrs: nounwind uwtable
define noundef zeroext i1 @zend_make_printable_zval(ptr noundef %0, ptr nocapture noundef writeonly %1) local_unnamed_addr #0 {
  %3 = getelementptr inbounds i8, ptr %0, i64 8
  %4 = load i8, ptr %3, align 8
  %5 = icmp ne i8 %4, 6
  br i1 %5, label %6, label %13

6:                                                ; preds = %2
  %7 = tail call ptr @zval_get_string_func(ptr noundef nonnull %0) #30
  store ptr %7, ptr %1, align 8
  %8 = getelementptr inbounds i8, ptr %7, i64 4
  %9 = load i32, ptr %8, align 4
  %10 = and i32 %9, 64
  %.not = icmp eq i32 %10, 0
  %11 = select i1 %.not, i32 262, i32 6
  %12 = getelementptr inbounds i8, ptr %1, i64 8
  store i32 %11, ptr %12, align 8
  br label %13

13:                                               ; preds = %2, %6
  ret i1 %5
}